target datalayout = "e-m:e-p270:32:32-p271:32:32-p272:64:64-i64:64-i128:128-f80:128-n8:16:32:64-S128"
target triple = "x86_64-pc-linux-gnu"

; Function Attrs: nounwind uwtable
define internal i32 @pg_utf8_verifychar(ptr noundef %0, i32 noundef %1) #1 {
  %3 = alloca i32, align 4
  %4 = alloca ptr, align 8
  %5 = alloca i32, align 4
  %6 = alloca i32, align 4
  %7 = alloca i32, align 4
  store ptr %0, ptr %4, align 8
  store i32 %1, ptr %5, align 4
  call void @llvm.lifetime.start.p0(i64 4, ptr %6) #7
  %8 = load ptr, ptr %4, align 8
  %9 = load i8, ptr %8, align 1
  %10 = zext i8 %9 to i32
  %11 = and i32 %10, 128
  %12 = icmp eq i32 %11, 0
  br i1 %12, label %13, label %20

13:                                               ; preds = %2
  %14 = load ptr, ptr %4, align 8
  %15 = load i8, ptr %14, align 1
  %16 = zext i8 %15 to i32
  %17 = icmp eq i32 %16, 0
  br i1 %17, label %18, label %19

18:                                               ; preds = %13
  store i32 -1, ptr %3, align 4
  store i32 1, ptr %7, align 4
  br label %57

19:                                               ; preds = %13
  store i32 1, ptr %3, align 4
  store i32 1, ptr %7, align 4
  br label %57

20:                                               ; preds = %2
  %21 = load ptr, ptr %4, align 8
  %22 = load i8, ptr %21, align 1
  %23 = zext i8 %22 to i32
  %24 = and i32 %23, 224
  %25 = icmp eq i32 %24, 192
  br i1 %25, label %26, label %27

26:                                               ; preds = %20
  store i32 2, ptr %6, align 4
  br label %44

27:                                               ; preds = %20
  %28 = load ptr, ptr %4, align 8
  %29 = load i8, ptr %28, align 1
  %30 = zext i8 %29 to i32
  %31 = and i32 %30, 240
  %32 = icmp eq i32 %31, 224
  br i1 %32, label %33, label %34

33:                                               ; preds = %27
  store i32 3, ptr %6, align 4
  br label %43

34:                                               ; preds = %27
  %35 = load ptr, ptr %4, align 8
  %36 = load i8, ptr %35, align 1
  %37 = zext i8 %36 to i32
  %38 = and i32 %37, 248
  %39 = icmp eq i32 %38, 240
  br i1 %39, label %40, label %41

40:                                               ; preds = %34
  store i32 4, ptr %6, align 4
  br label %42

41:                                               ; preds = %34
  store i32 1, ptr %6, align 4
  br label %42

42:                                               ; preds = %41, %40
  br label %43

43:                                               ; preds = %42, %33
  br label %44

44:                                               ; preds = %43, %26
  br label %45

45:                                               ; preds = %44
  %46 = load i32, ptr %6, align 4
  %47 = load i32, ptr %5, align 4
  %48 = icmp sgt i32 %46, %47
  br i1 %48, label %49, label %50

49:                                               ; preds = %45
  store i32 -1, ptr %3, align 4
  store i32 1, ptr %7, align 4
  br label %57

50:                                               ; preds = %45
  %51 = load ptr, ptr %4, align 8
  %52 = load i32, ptr %6, align 4
  %53 = call zeroext i1 @pg_utf8_islegal(ptr noundef %51, i32 noundef %52)
  br i1 %53, label %55, label %54

54:                                               ; preds = %50
  store i32 -1, ptr %3, align 4
  store i32 1, ptr %7, align 4
  br label %57

55:                                               ; preds = %50
  %56 = load i32, ptr %6, align 4
  store i32 %56, ptr %3, align 4
  store i32 1, ptr %7, align 4
  br label %57

57:                                               ; preds = %55, %54, %49, %19, %18
  call void @llvm.lifetime.end.p0(i64 4, ptr %6) #7
  %58 = load i32, ptr %3, align 4
  ret i32 %58
}