; Function Attrs: mustprogress nofree norecurse nosync nounwind willreturn memory(argmem: read) uwtable
define internal range(i32 -1, 5) i32 @pg_utf8_verifychar(ptr noundef readonly captures(none) %0, i32 noundef %1) #0 {
  %3 = load i8, ptr %0, align 1
  %4 = zext i8 %3 to i32
  %5 = icmp sgt i8 %3, -1
  br i1 %5, label %6, label %8

6:                                                ; preds = %2
  %7 = icmp eq i8 %3, 0
  %. = select i1 %7, i32 -1, i32 1
  br label %21

8:                                                ; preds = %2
  %9 = and i32 %4, 224
  %10 = icmp eq i32 %9, 192
  br i1 %10, label %17, label %11

11:                                               ; preds = %8
  %12 = and i32 %4, 240
  %13 = icmp eq i32 %12, 224
  br i1 %13, label %17, label %14

14:                                               ; preds = %11
  %15 = and i32 %4, 248
  %16 = icmp eq i32 %15, 240
  %.11 = select i1 %16, i32 4, i32 1
  br label %17

17:                                               ; preds = %14, %11, %8
  %.0 = phi i32 [ 2, %8 ], [ 3, %11 ], [ %.11, %14 ]
  %18 = icmp sgt i32 %.0, %1
  br i1 %18, label %21, label %19

19:                                               ; preds = %17
  %20 = tail call zeroext i1 @pg_utf8_islegal(ptr noundef nonnull %0, i32 noundef %.0)
  %.0. = select i1 %20, i32 %.0, i32 -1
  br label %21

21:                                               ; preds = %19, %17, %6
  %.010 = phi i32 [ %., %6 ], [ -1, %17 ], [ %.0., %19 ]
  ret i32 %.010
}